; Function Attrs: mustprogress uwtable
define dso_local void @_ZN5vcpkg3msg22write_unlocalized_textENS_5ColorENS_10StringViewE(i8 noundef signext %0, ptr nocapture readonly %1, i64 %2) local_unnamed_addr #3 {
  %4 = load i32, ptr @_ZN5vcpkg3msg21default_output_streamE, align 4
  %5 = icmp eq i32 %4, 0
  br i1 %5, label %6, label %11

6:                                                ; preds = %3
  %7 = load atomic i8, ptr @_ZGVZN5vcpkg3msg32write_unlocalized_text_to_stdoutENS_5ColorENS_10StringViewEE8is_a_tty acquire, align 8
  %8 = icmp eq i8 %7, 0
  br i1 %8, label %9, label %_ZN5vcpkg3msg32write_unlocalized_text_to_stdoutENS_5ColorENS_10StringViewE.exit, !prof !44

9:                                                ; preds = %6
  %10 = tail call i32 @__cxa_guard_acquire(ptr nonnull @_ZGVZN5vcpkg3msg32write_unlocalized_text_to_stdoutENS_5ColorENS_10StringViewEE8is_a_tty) #25
  %.not.i = icmp eq i32 %10, 0
  br i1 %.not.i, label %_ZN5vcpkg3msg32write_unlocalized_text_to_stdoutENS_5ColorENS_10StringViewE.exit, label %_ZN5vcpkg3msg32write_unlocalized_text_to_stdoutENS_5ColorENS_10StringViewE.exit.sink.split

11:                                               ; preds = %3
  %12 = load atomic i8, ptr @_ZGVZN5vcpkg3msg32write_unlocalized_text_to_stderrENS_5ColorENS_10StringViewEE8is_a_tty acquire, align 8
  %13 = icmp eq i8 %12, 0
  br i1 %13, label %14, label %_ZN5vcpkg3msg32write_unlocalized_text_to_stdoutENS_5ColorENS_10StringViewE.exit, !prof !44

14:                                               ; preds = %11
  %15 = tail call i32 @__cxa_guard_acquire(ptr nonnull @_ZGVZN5vcpkg3msg32write_unlocalized_text_to_stderrENS_5ColorENS_10StringViewEE8is_a_tty) #25
  %.not.i6 = icmp eq i32 %15, 0
  br i1 %.not.i6, label %_ZN5vcpkg3msg32write_unlocalized_text_to_stdoutENS_5ColorENS_10StringViewE.exit, label %_ZN5vcpkg3msg32write_unlocalized_text_to_stdoutENS_5ColorENS_10StringViewE.exit.sink.split

_ZN5vcpkg3msg32write_unlocalized_text_to_stdoutENS_5ColorENS_10StringViewE.exit.sink.split: ; preds = %14, %9
  %.sink14 = phi i32 [ 1, %9 ], [ 2, %14 ]
  %_ZZN5vcpkg3msg32write_unlocalized_text_to_stderrENS_5ColorENS_10StringViewEE8is_a_tty.sink11 = phi ptr [ @_ZZN5vcpkg3msg32write_unlocalized_text_to_stdoutENS_5ColorENS_10StringViewEE8is_a_tty, %9 ], [ @_ZZN5vcpkg3msg32write_unlocalized_text_to_stderrENS_5ColorENS_10StringViewEE8is_a_tty, %14 ]
  %_ZGVZN5vcpkg3msg32write_unlocalized_text_to_stderrENS_5ColorENS_10StringViewEE8is_a_tty.sink = phi ptr [ @_ZGVZN5vcpkg3msg32write_unlocalized_text_to_stdoutENS_5ColorENS_10StringViewEE8is_a_tty, %9 ], [ @_ZGVZN5vcpkg3msg32write_unlocalized_text_to_stderrENS_5ColorENS_10StringViewEE8is_a_tty, %14 ]
  %16 = tail call i32 @isatty(i32 noundef %.sink14) #25
  %17 = icmp ne i32 %16, 0
  %18 = zext i1 %17 to i8
  store i8 %18, ptr %_ZZN5vcpkg3msg32write_unlocalized_text_to_stderrENS_5ColorENS_10StringViewEE8is_a_tty.sink11, align 1
  tail call void @__cxa_guard_release(ptr nonnull %_ZGVZN5vcpkg3msg32write_unlocalized_text_to_stderrENS_5ColorENS_10StringViewEE8is_a_tty.sink) #25
  br label %_ZN5vcpkg3msg32write_unlocalized_text_to_stdoutENS_5ColorENS_10StringViewE.exit

_ZN5vcpkg3msg32write_unlocalized_text_to_stdoutENS_5ColorENS_10StringViewE.exit: ; preds = %_ZN5vcpkg3msg32write_unlocalized_text_to_stdoutENS_5ColorENS_10StringViewE.exit.sink.split, %14, %11, %9, %6
  %_ZZN5vcpkg3msg32write_unlocalized_text_to_stderrENS_5ColorENS_10StringViewEE8is_a_tty.sink = phi ptr [ @_ZZN5vcpkg3msg32write_unlocalized_text_to_stdoutENS_5ColorENS_10StringViewEE8is_a_tty, %6 ], [ @_ZZN5vcpkg3msg32write_unlocalized_text_to_stdoutENS_5ColorENS_10StringViewEE8is_a_tty, %9 ], [ @_ZZN5vcpkg3msg32write_unlocalized_text_to_stderrENS_5ColorENS_10StringViewEE8is_a_tty, %11 ], [ @_ZZN5vcpkg3msg32write_unlocalized_text_to_stderrENS_5ColorENS_10StringViewEE8is_a_tty, %14 ], [ %_ZZN5vcpkg3msg32write_unlocalized_text_to_stderrENS_5ColorENS_10StringViewEE8is_a_tty.sink11, %_ZN5vcpkg3msg32write_unlocalized_text_to_stdoutENS_5ColorENS_10StringViewE.exit.sink.split ]
  %.sink = phi i32 [ 1, %6 ], [ 1, %9 ], [ 2, %11 ], [ 2, %14 ], [ %.sink14, %_ZN5vcpkg3msg32write_unlocalized_text_to_stdoutENS_5ColorENS_10StringViewE.exit.sink.split ]
  %19 = load i8, ptr %_ZZN5vcpkg3msg32write_unlocalized_text_to_stderrENS_5ColorENS_10StringViewEE8is_a_tty.sink, align 1
  %20 = and i8 %19, 1
  %21 = icmp ne i8 %20, 0
  tail call fastcc void @_ZN5vcpkg3msgL27write_unlocalized_text_implENS_5ColorENS_10StringViewEib(i8 noundef signext %0, ptr %1, i64 %2, i32 noundef %.sink, i1 noundef zeroext %21)
  ret void
}